; Function Attrs: mustprogress uwtable
define void @text_window_set_editable(ptr noundef readonly %0, i32 noundef %1) local_unnamed_addr #2 {
  %.not = icmp eq ptr %0, null
  br i1 %.not, label %9, label %3

3:                                                ; preds = %2
  %4 = load ptr, ptr %0, align 8
  %5 = getelementptr inbounds i8, ptr %4, i64 64
  %6 = load ptr, ptr %5, align 8
  %7 = getelementptr inbounds i8, ptr %6, i64 8
  %8 = load ptr, ptr %7, align 8
  %.not.i = icmp eq i32 %1, 0
  tail call void @_ZN9QTextEdit11setReadOnlyEb(ptr noundef nonnull align 8 dereferenceable(40) %8, i1 noundef zeroext %.not.i)
  br label %9

9:                                                ; preds = %3, %2
  ret void
}